; Function Attrs: mustprogress uwtable
define void @_ZN4cvc58internal6parser11SymbolTable14Implementation15resetAssertionsEv(ptr noundef nonnull align 8 dereferenceable(416) %this) local_unnamed_addr #3 align 2 {
cond.end:
  %call57 = tail call noundef i32 @_ZNK4cvc57context7Context8getLevelEv(ptr noundef nonnull align 8 dereferenceable(48) %this)
  %cmp.not8 = icmp eq i32 %call57, 0
  br i1 %cmp.not8, label %while.end, label %while.body

while.body:                                       ; preds = %cond.end, %while.body
  tail call void @_ZN4cvc57context7Context3popEv(ptr noundef nonnull align 8 dereferenceable(48) %this)
  %call5 = tail call noundef i32 @_ZNK4cvc57context7Context8getLevelEv(ptr noundef nonnull align 8 dereferenceable(48) %this)
  %cmp.not = icmp eq i32 %call5, 0
  br i1 %cmp.not, label %while.end, label %while.body, !llvm.loop !58

while.end:                                        ; preds = %while.body, %cond.end
  tail call void @_ZN4cvc57context7Context4pushEv(ptr noundef nonnull align 8 dereferenceable(48) %this)
  ret void
}